target datalayout = "e-m:e-p270:32:32-p271:32:32-p272:64:64-i64:64-i128:128-f80:128-n8:16:32:64-S128"
target triple = "x86_64-pc-linux-gnu"

%struct.mi_heap_s = type { ptr, ptr, i64, i32, i64, [2 x i64], %struct.mi_random_cxt_s, i64, i64, i64, ptr, i8, i8, [129 x ptr], [75 x %struct.mi_page_queue_s] }
%struct.mi_random_cxt_s = type { [16 x i32], [16 x i32], i32, i8 }
%struct.mi_page_queue_s = type { ptr, ptr, i64 }
%struct.mi_tld_s = type { i64, i8, ptr, ptr, %struct.mi_segments_tld_s, %struct.mi_stats_s }
%struct.mi_segments_tld_s = type { %struct.mi_segment_queue_s, %struct.mi_segment_queue_s, %struct.mi_page_queue_s, i64, i64, i64, i64, i64, ptr, ptr }
%struct.mi_segment_queue_s = type { ptr, ptr }
%struct.mi_stats_s = type { %struct.mi_stat_count_s, %struct.mi_stat_count_s, %struct.mi_stat_count_s, %struct.mi_stat_count_s, %struct.mi_stat_count_s, %struct.mi_stat_count_s, %struct.mi_stat_count_s, %struct.mi_stat_count_s, %struct.mi_stat_count_s, %struct.mi_stat_count_s, %struct.mi_stat_count_s, %struct.mi_stat_count_s, %struct.mi_stat_count_s, %struct.mi_stat_count_s, %struct.mi_stat_count_s, %struct.mi_stat_counter_s, %struct.mi_stat_counter_s, %struct.mi_stat_counter_s, %struct.mi_stat_counter_s, %struct.mi_stat_counter_s, %struct.mi_stat_counter_s, %struct.mi_stat_counter_s, %struct.mi_stat_counter_s, %struct.mi_stat_counter_s, %struct.mi_stat_counter_s, %struct.mi_stat_counter_s, %struct.mi_stat_counter_s, %struct.mi_stat_counter_s }
%struct.mi_stat_count_s = type { i64, i64, i64, i64 }
%struct.mi_stat_counter_s = type { i64, i64 }

@_mi_heap_empty = external hidden constant %struct.mi_heap_s, align 8
@_mi_heap_default = external thread_local(initialexec) global ptr, align 8

; Function Attrs: inlinehint nounwind uwtable
define internal void @_mi_memcpy(ptr noundef %0, ptr noundef %1, i64 noundef %2) #1 {
  %4 = alloca ptr, align 8
  %5 = alloca ptr, align 8
  %6 = alloca i64, align 8
  store ptr %0, ptr %4, align 8, !tbaa !42
  store ptr %1, ptr %5, align 8, !tbaa !42
  store i64 %2, ptr %6, align 8, !tbaa !39
  %7 = load ptr, ptr %4, align 8, !tbaa !42
  %8 = load ptr, ptr %5, align 8, !tbaa !42
  %9 = load i64, ptr %6, align 8, !tbaa !39
  call void @llvm.memcpy.p0.p0.i64(ptr align 1 %7, ptr align 1 %8, i64 %9, i1 false)
  ret void
}

; Function Attrs: inlinehint nounwind uwtable
define internal ptr @mi_prim_get_default_heap() #1 {
  %1 = call align 8 ptr @llvm.threadlocal.address.p0(ptr align 8 @_mi_heap_default)
  %2 = load ptr, ptr %1, align 8, !tbaa !3
  ret ptr %2
}

; Function Attrs: inlinehint nounwind uwtable
define internal void @_mi_memcpy_aligned(ptr noundef %0, ptr noundef %1, i64 noundef %2) #1 {
  %4 = alloca ptr, align 8
  %5 = alloca ptr, align 8
  %6 = alloca i64, align 8
  %7 = alloca ptr, align 8
  %8 = alloca ptr, align 8
  store ptr %0, ptr %4, align 8, !tbaa !42
  store ptr %1, ptr %5, align 8, !tbaa !42
  store i64 %2, ptr %6, align 8, !tbaa !39
  call void @llvm.lifetime.start.p0(i64 8, ptr %7) #10
  %9 = load ptr, ptr %4, align 8, !tbaa !42
  call void @llvm.assume(i1 true) [ "align"(ptr %9, i64 8) ]
  store ptr %9, ptr %7, align 8, !tbaa !42
  call void @llvm.lifetime.start.p0(i64 8, ptr %8) #10
  %10 = load ptr, ptr %5, align 8, !tbaa !42
  call void @llvm.assume(i1 true) [ "align"(ptr %10, i64 8) ]
  store ptr %10, ptr %8, align 8, !tbaa !42
  %11 = load ptr, ptr %7, align 8, !tbaa !42
  %12 = load ptr, ptr %8, align 8, !tbaa !42
  %13 = load i64, ptr %6, align 8, !tbaa !39
  call void @_mi_memcpy(ptr noundef %11, ptr noundef %12, i64 noundef %13) #9
  call void @llvm.lifetime.end.p0(i64 8, ptr %8) #10
  call void @llvm.lifetime.end.p0(i64 8, ptr %7) #10
  ret void
}

; Function Attrs: nounwind uwtable
define internal zeroext i1 @mi_heap_is_default(ptr noundef %0) #0 {
  %2 = alloca ptr, align 8
  store ptr %0, ptr %2, align 8, !tbaa !3
  %3 = load ptr, ptr %2, align 8, !tbaa !3
  %4 = call ptr @mi_prim_get_default_heap() #9
  %5 = icmp eq ptr %3, %4
  ret i1 %5
}

; Function Attrs: inlinehint nounwind uwtable
define internal zeroext i1 @mi_heap_is_backing(ptr noundef %0) #1 {
  %2 = alloca ptr, align 8
  store ptr %0, ptr %2, align 8, !tbaa !3
  %3 = load ptr, ptr %2, align 8, !tbaa !3
  %4 = getelementptr inbounds nuw %struct.mi_heap_s, ptr %3, i32 0, i32 0
  %5 = load ptr, ptr %4, align 8, !tbaa !20
  %6 = getelementptr inbounds nuw %struct.mi_tld_s, ptr %5, i32 0, i32 2
  %7 = load ptr, ptr %6, align 8, !tbaa !21
  %8 = load ptr, ptr %2, align 8, !tbaa !3
  %9 = icmp eq ptr %7, %8
  ret i1 %9
}

; Function Attrs: nounwind uwtable
define internal void @mi_heap_reset_pages(ptr noundef %0) #0 {
  %2 = alloca ptr, align 8
  store ptr %0, ptr %2, align 8, !tbaa !3
  %3 = load ptr, ptr %2, align 8, !tbaa !3
  %4 = getelementptr inbounds nuw %struct.mi_heap_s, ptr %3, i32 0, i32 13
  call void @llvm.memset.p0.i64(ptr align 8 %4, i8 0, i64 1032, i1 false)
  %5 = load ptr, ptr %2, align 8, !tbaa !3
  %6 = getelementptr inbounds nuw %struct.mi_heap_s, ptr %5, i32 0, i32 14
  call void @_mi_memcpy_aligned(ptr noundef %6, ptr noundef getelementptr inbounds nuw (%struct.mi_heap_s, ptr @_mi_heap_empty, i32 0, i32 14), i64 noundef 1800) #9
  %7 = load ptr, ptr %2, align 8, !tbaa !3
  %8 = getelementptr inbounds nuw %struct.mi_heap_s, ptr %7, i32 0, i32 1
  store atomic ptr null, ptr %8 seq_cst, align 8, !tbaa !59
  %9 = load ptr, ptr %2, align 8, !tbaa !3
  %10 = getelementptr inbounds nuw %struct.mi_heap_s, ptr %9, i32 0, i32 7
  store i64 0, ptr %10, align 8, !tbaa !45
  ret void
}

; Function Attrs: nounwind uwtable
define internal void @mi_heap_free(ptr noundef %0) #0 {
  %2 = alloca ptr, align 8
  %3 = alloca ptr, align 8
  %4 = alloca ptr, align 8
  store ptr %0, ptr %2, align 8, !tbaa !3
  %5 = load ptr, ptr %2, align 8, !tbaa !3
  %6 = icmp eq ptr %5, null
  br i1 %6, label %10, label %7

7:                                                ; preds = %1
  %8 = load ptr, ptr %2, align 8, !tbaa !3
  %9 = call zeroext i1 @mi_heap_is_initialized(ptr noundef %8) #9
  br i1 %9, label %11, label %10

10:                                               ; preds = %7, %1
  br label %68

11:                                               ; preds = %7
  %12 = load ptr, ptr %2, align 8, !tbaa !3
  %13 = call zeroext i1 @mi_heap_is_backing(ptr noundef %12) #9
  br i1 %13, label %14, label %15

14:                                               ; preds = %11
  br label %68

15:                                               ; preds = %11
  %16 = load ptr, ptr %2, align 8, !tbaa !3
  %17 = call zeroext i1 @mi_heap_is_default(ptr noundef %16) #9
  br i1 %17, label %18, label %24

18:                                               ; preds = %15
  %19 = load ptr, ptr %2, align 8, !tbaa !3
  %20 = getelementptr inbounds nuw %struct.mi_heap_s, ptr %19, i32 0, i32 0
  %21 = load ptr, ptr %20, align 8, !tbaa !20
  %22 = getelementptr inbounds nuw %struct.mi_tld_s, ptr %21, i32 0, i32 2
  %23 = load ptr, ptr %22, align 8, !tbaa !21
  call void @_mi_heap_set_default_direct(ptr noundef %23) #9
  br label %24

24:                                               ; preds = %18, %15
  call void @llvm.lifetime.start.p0(i64 8, ptr %3) #10
  store ptr null, ptr %3, align 8, !tbaa !3
  call void @llvm.lifetime.start.p0(i64 8, ptr %4) #10
  %25 = load ptr, ptr %2, align 8, !tbaa !3
  %26 = getelementptr inbounds nuw %struct.mi_heap_s, ptr %25, i32 0, i32 0
  %27 = load ptr, ptr %26, align 8, !tbaa !20
  %28 = getelementptr inbounds nuw %struct.mi_tld_s, ptr %27, i32 0, i32 3
  %29 = load ptr, ptr %28, align 8, !tbaa !40
  store ptr %29, ptr %4, align 8, !tbaa !3
  br label %30

30:                                               ; preds = %39, %24
  %31 = load ptr, ptr %4, align 8, !tbaa !3
  %32 = load ptr, ptr %2, align 8, !tbaa !3
  %33 = icmp ne ptr %31, %32
  br i1 %33, label %34, label %37

34:                                               ; preds = %30
  %35 = load ptr, ptr %4, align 8, !tbaa !3
  %36 = icmp ne ptr %35, null
  br label %37

37:                                               ; preds = %34, %30
  %38 = phi i1 [ false, %30 ], [ %36, %34 ]
  br i1 %38, label %39, label %44

39:                                               ; preds = %37
  %40 = load ptr, ptr %4, align 8, !tbaa !3
  store ptr %40, ptr %3, align 8, !tbaa !3
  %41 = load ptr, ptr %4, align 8, !tbaa !3
  %42 = getelementptr inbounds nuw %struct.mi_heap_s, ptr %41, i32 0, i32 10
  %43 = load ptr, ptr %42, align 8, !tbaa !41
  store ptr %43, ptr %4, align 8, !tbaa !3
  br label %30, !llvm.loop !60

44:                                               ; preds = %37
  %45 = load ptr, ptr %4, align 8, !tbaa !3
  %46 = load ptr, ptr %2, align 8, !tbaa !3
  %47 = icmp eq ptr %45, %46
  br i1 %47, label %48, label %66

48:                                               ; preds = %44
  %49 = load ptr, ptr %3, align 8, !tbaa !3
  %50 = icmp ne ptr %49, null
  br i1 %50, label %51, label %57

51:                                               ; preds = %48
  %52 = load ptr, ptr %2, align 8, !tbaa !3
  %53 = getelementptr inbounds nuw %struct.mi_heap_s, ptr %52, i32 0, i32 10
  %54 = load ptr, ptr %53, align 8, !tbaa !41
  %55 = load ptr, ptr %3, align 8, !tbaa !3
  %56 = getelementptr inbounds nuw %struct.mi_heap_s, ptr %55, i32 0, i32 10
  store ptr %54, ptr %56, align 8, !tbaa !41
  br label %65

57:                                               ; preds = %48
  %58 = load ptr, ptr %2, align 8, !tbaa !3
  %59 = getelementptr inbounds nuw %struct.mi_heap_s, ptr %58, i32 0, i32 10
  %60 = load ptr, ptr %59, align 8, !tbaa !41
  %61 = load ptr, ptr %2, align 8, !tbaa !3
  %62 = getelementptr inbounds nuw %struct.mi_heap_s, ptr %61, i32 0, i32 0
  %63 = load ptr, ptr %62, align 8, !tbaa !20
  %64 = getelementptr inbounds nuw %struct.mi_tld_s, ptr %63, i32 0, i32 3
  store ptr %60, ptr %64, align 8, !tbaa !40
  br label %65

65:                                               ; preds = %57, %51
  br label %66

66:                                               ; preds = %65, %44
  %67 = load ptr, ptr %2, align 8, !tbaa !3
  call void @mi_free(ptr noundef %67) #9
  call void @llvm.lifetime.end.p0(i64 8, ptr %4) #10
  call void @llvm.lifetime.end.p0(i64 8, ptr %3) #10
  br label %68

68:                                               ; preds = %66, %14, %10
  ret void
}

; Function Attrs: nounwind uwtable
define hidden void @_mi_heap_collect_abandon(ptr noundef %0) #0 {
  %2 = alloca ptr, align 8
  store ptr %0, ptr %2, align 8, !tbaa !3
  %3 = load ptr, ptr %2, align 8, !tbaa !3
  call void @mi_heap_collect_ex(ptr noundef %3, i32 noundef 2) #9
  ret void
}

; Function Attrs: nounwind uwtable
define internal void @mi_heap_absorb(ptr noundef %0, ptr noundef %1) #0 {
  %3 = alloca ptr, align 8
  %4 = alloca ptr, align 8
  %5 = alloca i64, align 8
  %6 = alloca ptr, align 8
  %7 = alloca ptr, align 8
  %8 = alloca i64, align 8
  store ptr %0, ptr %3, align 8, !tbaa !3
  store ptr %1, ptr %4, align 8, !tbaa !3
  %9 = load ptr, ptr %4, align 8, !tbaa !3
  %10 = icmp eq ptr %9, null
  br i1 %10, label %16, label %11

11:                                               ; preds = %2
  %12 = load ptr, ptr %4, align 8, !tbaa !3
  %13 = getelementptr inbounds nuw %struct.mi_heap_s, ptr %12, i32 0, i32 7
  %14 = load i64, ptr %13, align 8, !tbaa !45
  %15 = icmp eq i64 %14, 0
  br i1 %15, label %16, label %17

16:                                               ; preds = %11, %2
  br label %53

17:                                               ; preds = %11
  %18 = load ptr, ptr %4, align 8, !tbaa !3
  %19 = call zeroext i1 @_mi_heap_delayed_free_partial(ptr noundef %18) #9
  call void @llvm.lifetime.start.p0(i64 8, ptr %5) #10
  store i64 0, ptr %5, align 8, !tbaa !39
  br label %20

20:                                               ; preds = %47, %17
  %21 = load i64, ptr %5, align 8, !tbaa !39
  %22 = icmp ule i64 %21, 74
  br i1 %22, label %24, label %23

23:                                               ; preds = %20
  call void @llvm.lifetime.end.p0(i64 8, ptr %5) #10
  br label %50

24:                                               ; preds = %20
  call void @llvm.lifetime.start.p0(i64 8, ptr %6) #10
  %25 = load ptr, ptr %3, align 8, !tbaa !3
  %26 = getelementptr inbounds nuw %struct.mi_heap_s, ptr %25, i32 0, i32 14
  %27 = load i64, ptr %5, align 8, !tbaa !39
  %28 = getelementptr inbounds nuw [75 x %struct.mi_page_queue_s], ptr %26, i64 0, i64 %27
  store ptr %28, ptr %6, align 8, !tbaa !46
  call void @llvm.lifetime.start.p0(i64 8, ptr %7) #10
  %29 = load ptr, ptr %4, align 8, !tbaa !3
  %30 = getelementptr inbounds nuw %struct.mi_heap_s, ptr %29, i32 0, i32 14
  %31 = load i64, ptr %5, align 8, !tbaa !39
  %32 = getelementptr inbounds nuw [75 x %struct.mi_page_queue_s], ptr %30, i64 0, i64 %31
  store ptr %32, ptr %7, align 8, !tbaa !46
  call void @llvm.lifetime.start.p0(i64 8, ptr %8) #10
  %33 = load ptr, ptr %3, align 8, !tbaa !3
  %34 = load ptr, ptr %6, align 8, !tbaa !46
  %35 = load ptr, ptr %7, align 8, !tbaa !46
  %36 = call i64 @_mi_page_queue_append(ptr noundef %33, ptr noundef %34, ptr noundef %35) #9
  store i64 %36, ptr %8, align 8, !tbaa !39
  %37 = load i64, ptr %8, align 8, !tbaa !39
  %38 = load ptr, ptr %3, align 8, !tbaa !3
  %39 = getelementptr inbounds nuw %struct.mi_heap_s, ptr %38, i32 0, i32 7
  %40 = load i64, ptr %39, align 8, !tbaa !45
  %41 = add i64 %40, %37
  store i64 %41, ptr %39, align 8, !tbaa !45
  %42 = load i64, ptr %8, align 8, !tbaa !39
  %43 = load ptr, ptr %4, align 8, !tbaa !3
  %44 = getelementptr inbounds nuw %struct.mi_heap_s, ptr %43, i32 0, i32 7
  %45 = load i64, ptr %44, align 8, !tbaa !45
  %46 = sub i64 %45, %42
  store i64 %46, ptr %44, align 8, !tbaa !45
  call void @llvm.lifetime.end.p0(i64 8, ptr %8) #10
  call void @llvm.lifetime.end.p0(i64 8, ptr %7) #10
  call void @llvm.lifetime.end.p0(i64 8, ptr %6) #10
  br label %47

47:                                               ; preds = %24
  %48 = load i64, ptr %5, align 8, !tbaa !39
  %49 = add i64 %48, 1
  store i64 %49, ptr %5, align 8, !tbaa !39
  br label %20, !llvm.loop !62

50:                                               ; preds = %23
  %51 = load ptr, ptr %4, align 8, !tbaa !3
  call void @_mi_heap_delayed_free_all(ptr noundef %51) #9
  %52 = load ptr, ptr %4, align 8, !tbaa !3
  call void @mi_heap_reset_pages(ptr noundef %52) #9
  br label %53

53:                                               ; preds = %50, %16
  ret void
}

; Function Attrs: nounwind uwtable
define internal zeroext i1 @mi_heaps_are_compatible(ptr noundef %0, ptr noundef %1) #0 {
  %3 = alloca ptr, align 8
  %4 = alloca ptr, align 8
  store ptr %0, ptr %3, align 8, !tbaa !3
  store ptr %1, ptr %4, align 8, !tbaa !3
  %5 = load ptr, ptr %3, align 8, !tbaa !3
  %6 = getelementptr inbounds nuw %struct.mi_heap_s, ptr %5, i32 0, i32 12
  %7 = load i8, ptr %6, align 1, !tbaa !37
  %8 = zext i8 %7 to i32
  %9 = load ptr, ptr %4, align 8, !tbaa !3
  %10 = getelementptr inbounds nuw %struct.mi_heap_s, ptr %9, i32 0, i32 12
  %11 = load i8, ptr %10, align 1, !tbaa !37
  %12 = zext i8 %11 to i32
  %13 = icmp eq i32 %8, %12
  br i1 %13, label %14, label %22

14:                                               ; preds = %2
  %15 = load ptr, ptr %3, align 8, !tbaa !3
  %16 = getelementptr inbounds nuw %struct.mi_heap_s, ptr %15, i32 0, i32 3
  %17 = load i32, ptr %16, align 8, !tbaa !36
  %18 = load ptr, ptr %4, align 8, !tbaa !3
  %19 = getelementptr inbounds nuw %struct.mi_heap_s, ptr %18, i32 0, i32 3
  %20 = load i32, ptr %19, align 8, !tbaa !36
  %21 = icmp eq i32 %17, %20
  br label %22

22:                                               ; preds = %14, %2
  %23 = phi i1 [ false, %2 ], [ %21, %14 ]
  ret i1 %23
}

; Function Attrs: inlinehint nounwind uwtable
define internal zeroext i1 @mi_heap_is_initialized(ptr noundef %0) #1 {
  %2 = alloca ptr, align 8
  store ptr %0, ptr %2, align 8, !tbaa !3
  %3 = load ptr, ptr %2, align 8, !tbaa !3
  %4 = icmp ne ptr %3, null
  br i1 %4, label %5, label %8

5:                                                ; preds = %1
  %6 = load ptr, ptr %2, align 8, !tbaa !3
  %7 = icmp ne ptr %6, @_mi_heap_empty
  br label %8

8:                                                ; preds = %5, %1
  %9 = phi i1 [ false, %1 ], [ %7, %5 ]
  ret i1 %9
}

; Function Attrs: nounwind uwtable
define hidden void @mi_heap_delete(ptr noundef %0) #0 {
  %2 = alloca ptr, align 8
  %3 = alloca ptr, align 8
  store ptr %0, ptr %2, align 8, !tbaa !3
  %4 = load ptr, ptr %2, align 8, !tbaa !3
  %5 = icmp eq ptr %4, null
  br i1 %5, label %9, label %6

6:                                                ; preds = %1
  %7 = load ptr, ptr %2, align 8, !tbaa !3
  %8 = call zeroext i1 @mi_heap_is_initialized(ptr noundef %7) #9
  br i1 %8, label %10, label %9

9:                                                ; preds = %6, %1
  br label %30

10:                                               ; preds = %6
  call void @llvm.lifetime.start.p0(i64 8, ptr %3) #10
  %11 = load ptr, ptr %2, align 8, !tbaa !3
  %12 = getelementptr inbounds nuw %struct.mi_heap_s, ptr %11, i32 0, i32 0
  %13 = load ptr, ptr %12, align 8, !tbaa !20
  %14 = getelementptr inbounds nuw %struct.mi_tld_s, ptr %13, i32 0, i32 2
  %15 = load ptr, ptr %14, align 8, !tbaa !21
  store ptr %15, ptr %3, align 8, !tbaa !3
  %16 = load ptr, ptr %3, align 8, !tbaa !3
  %17 = load ptr, ptr %2, align 8, !tbaa !3
  %18 = icmp ne ptr %16, %17
  br i1 %18, label %19, label %26

19:                                               ; preds = %10
  %20 = load ptr, ptr %3, align 8, !tbaa !3
  %21 = load ptr, ptr %2, align 8, !tbaa !3
  %22 = call zeroext i1 @mi_heaps_are_compatible(ptr noundef %20, ptr noundef %21) #9
  br i1 %22, label %23, label %26

23:                                               ; preds = %19
  %24 = load ptr, ptr %3, align 8, !tbaa !3
  %25 = load ptr, ptr %2, align 8, !tbaa !3
  call void @mi_heap_absorb(ptr noundef %24, ptr noundef %25) #9
  br label %28

26:                                               ; preds = %19, %10
  %27 = load ptr, ptr %2, align 8, !tbaa !3
  call void @_mi_heap_collect_abandon(ptr noundef %27) #9
  br label %28

28:                                               ; preds = %26, %23
  %29 = load ptr, ptr %2, align 8, !tbaa !3
  call void @mi_heap_free(ptr noundef %29) #9
  call void @llvm.lifetime.end.p0(i64 8, ptr %3) #10
  br label %30

30:                                               ; preds = %28, %9
  ret void
}