; Function Attrs: nounwind uwtable
define hidden void @mi_heap_delete(ptr noundef %0) local_unnamed_addr #0 {
  %2 = icmp ne ptr %0, null
  %3 = icmp ne ptr %0, @_mi_heap_empty
  %or.cond = and i1 %2, %3
  br i1 %or.cond, label %4, label %mi_heap_free.exit

4:                                                ; preds = %1
  %5 = load ptr, ptr %0, align 8, !tbaa !14
  %6 = getelementptr inbounds nuw i8, ptr %5, i64 16
  %7 = load ptr, ptr %6, align 8, !tbaa !15
  %.not = icmp eq ptr %7, %0
  br i1 %.not, label %mi_heaps_are_compatible.exit.thread, label %8

8:                                                ; preds = %4
  %9 = getelementptr inbounds nuw i8, ptr %7, i64 225
  %10 = load i8, ptr %9, align 1, !tbaa !44
  %11 = getelementptr inbounds nuw i8, ptr %0, i64 225
  %12 = load i8, ptr %11, align 1, !tbaa !44
  %13 = icmp eq i8 %10, %12
  br i1 %13, label %mi_heaps_are_compatible.exit, label %mi_heaps_are_compatible.exit.thread

mi_heaps_are_compatible.exit:                     ; preds = %8
  %14 = getelementptr inbounds nuw i8, ptr %7, i64 24
  %15 = load i32, ptr %14, align 8, !tbaa !43
  %16 = getelementptr inbounds nuw i8, ptr %0, i64 24
  %17 = load i32, ptr %16, align 8, !tbaa !43
  %18 = icmp eq i32 %15, %17
  br i1 %18, label %19, label %mi_heaps_are_compatible.exit.thread

19:                                               ; preds = %mi_heaps_are_compatible.exit
  %20 = getelementptr inbounds nuw i8, ptr %0, i64 192
  %21 = load i64, ptr %20, align 8, !tbaa !31
  %22 = icmp eq i64 %21, 0
  br i1 %22, label %mi_heap_absorb.exit.thread, label %23

23:                                               ; preds = %19
  %24 = tail call zeroext i1 @_mi_heap_delayed_free_partial(ptr noundef nonnull %0) #11
  %25 = getelementptr inbounds nuw i8, ptr %7, i64 1264
  %26 = getelementptr inbounds nuw i8, ptr %0, i64 1264
  %27 = getelementptr inbounds nuw i8, ptr %7, i64 192
  br label %28

28:                                               ; preds = %28, %23
  %.018.i = phi i64 [ 0, %23 ], [ %36, %28 ]
  %29 = getelementptr inbounds nuw [75 x %struct.mi_page_queue_s], ptr %25, i64 0, i64 %.018.i
  %30 = getelementptr inbounds nuw [75 x %struct.mi_page_queue_s], ptr %26, i64 0, i64 %.018.i
  %31 = tail call i64 @_mi_page_queue_append(ptr noundef nonnull %7, ptr noundef nonnull %29, ptr noundef nonnull %30) #11
  %32 = load i64, ptr %27, align 8, !tbaa !31
  %33 = add i64 %32, %31
  store i64 %33, ptr %27, align 8, !tbaa !31
  %34 = load i64, ptr %20, align 8, !tbaa !31
  %35 = sub i64 %34, %31
  store i64 %35, ptr %20, align 8, !tbaa !31
  %36 = add nuw nsw i64 %.018.i, 1
  %exitcond.not.i = icmp eq i64 %36, 75
  br i1 %exitcond.not.i, label %mi_heap_absorb.exit, label %28, !llvm.loop !52

mi_heaps_are_compatible.exit.thread:              ; preds = %8, %mi_heaps_are_compatible.exit, %4
  tail call fastcc void @mi_heap_collect_ex(ptr noundef nonnull %0, i32 noundef 2) #10
  br label %mi_heap_absorb.exit.thread

mi_heap_absorb.exit:                              ; preds = %28
  tail call void @_mi_heap_delayed_free_all(ptr noundef nonnull %0) #11
  %37 = getelementptr inbounds nuw i8, ptr %0, i64 232
  tail call void @llvm.memset.p0.i64(ptr noundef nonnull align 8 dereferenceable(1032) %37, i8 0, i64 1032, i1 false)
  call void @llvm.assume(i1 true) [ "align"(ptr %26, i64 8) ]
  call void @llvm.assume(i1 true) [ "align"(ptr getelementptr inbounds nuw (i8, ptr @_mi_heap_empty, i64 1264), i64 8) ]
  tail call void @llvm.memcpy.p0.p0.i64(ptr noundef nonnull align 8 dereferenceable(1800) %26, ptr noundef nonnull readonly align 8 dereferenceable(1800) getelementptr inbounds nuw (i8, ptr @_mi_heap_empty, i64 1264), i64 range(i64 1800, 3065) 1800, i1 false)
  %38 = getelementptr inbounds nuw i8, ptr %0, i64 8
  store atomic ptr null, ptr %38 seq_cst, align 8, !tbaa !50
  store i64 0, ptr %20, align 8, !tbaa !31
  br label %mi_heap_absorb.exit.thread

mi_heap_absorb.exit.thread:                       ; preds = %mi_heap_absorb.exit, %mi_heaps_are_compatible.exit.thread, %19
  %39 = load ptr, ptr %0, align 8, !tbaa !14
  %40 = getelementptr inbounds nuw i8, ptr %39, i64 16
  %41 = load ptr, ptr %40, align 8, !tbaa !15
  %42 = icmp eq ptr %41, %0
  br i1 %42, label %mi_heap_free.exit, label %43

43:                                               ; preds = %mi_heap_absorb.exit.thread
  %44 = tail call align 8 ptr @llvm.threadlocal.address.p0(ptr align 8 @_mi_heap_default)
  %45 = load ptr, ptr %44, align 8, !tbaa !42
  %46 = icmp eq ptr %0, %45
  br i1 %46, label %47, label %48

47:                                               ; preds = %43
  tail call void @_mi_heap_set_default_direct(ptr noundef %41) #11
  %.pre.i = load ptr, ptr %0, align 8, !tbaa !14
  br label %48

48:                                               ; preds = %47, %43
  %49 = phi ptr [ %.pre.i, %47 ], [ %39, %43 ]
  %50 = getelementptr inbounds nuw i8, ptr %49, i64 24
  br label %51

51:                                               ; preds = %51, %48
  %.019.i = phi ptr [ null, %48 ], [ %.0.i, %51 ]
  %.0.in.i = phi ptr [ %50, %48 ], [ %55, %51 ]
  %.0.i = load ptr, ptr %.0.in.i, align 8, !tbaa !42
  %52 = icmp ne ptr %.0.i, %0
  %53 = icmp ne ptr %.0.i, null
  %54 = and i1 %52, %53
  %55 = getelementptr inbounds nuw i8, ptr %.0.i, i64 216
  br i1 %54, label %51, label %56, !llvm.loop !51

56:                                               ; preds = %51
  %57 = icmp eq ptr %.0.i, %0
  br i1 %57, label %58, label %64

58:                                               ; preds = %56
  %.not.i = icmp eq ptr %.019.i, null
  %59 = getelementptr inbounds nuw i8, ptr %0, i64 216
  %60 = load ptr, ptr %59, align 8, !tbaa !48
  br i1 %.not.i, label %63, label %61

61:                                               ; preds = %58
  %62 = getelementptr inbounds nuw i8, ptr %.019.i, i64 216
  store ptr %60, ptr %62, align 8, !tbaa !48
  br label %64

63:                                               ; preds = %58
  store ptr %60, ptr %50, align 8, !tbaa !47
  br label %64

64:                                               ; preds = %63, %61, %56
  tail call void @mi_free(ptr noundef nonnull %0) #11
  br label %mi_heap_free.exit

mi_heap_free.exit:                                ; preds = %64, %mi_heap_absorb.exit.thread, %1
  ret void
}